
./riscv-interpreter-task/bin/rv32i/test_sub:     file format elf32-littleriscv


Disassembly of section .text:

00010074 <sub_u8u8>:
   10074:	fe010113          	addi	sp,sp,-32
   10078:	00812e23          	sw	s0,28(sp)
   1007c:	02010413          	addi	s0,sp,32
   10080:	00050793          	mv	a5,a0
   10084:	00058693          	mv	a3,a1
   10088:	00060713          	mv	a4,a2
   1008c:	fef407a3          	sb	a5,-17(s0)
   10090:	00068793          	mv	a5,a3
   10094:	fef40723          	sb	a5,-18(s0)
   10098:	00070793          	mv	a5,a4
   1009c:	fef406a3          	sb	a5,-19(s0)
   100a0:	fef44703          	lbu	a4,-17(s0)
   100a4:	fee44783          	lbu	a5,-18(s0)
   100a8:	40f70733          	sub	a4,a4,a5
   100ac:	fed44783          	lbu	a5,-19(s0)
   100b0:	00f70663          	beq	a4,a5,100bc <sub_u8u8+0x48>
   100b4:	00100793          	li	a5,1
   100b8:	0080006f          	j	100c0 <sub_u8u8+0x4c>
   100bc:	00000793          	li	a5,0
   100c0:	00078513          	mv	a0,a5
   100c4:	01c12403          	lw	s0,28(sp)
   100c8:	02010113          	addi	sp,sp,32
   100cc:	00008067          	ret

000100d0 <sub_u16u16>:
   100d0:	fe010113          	addi	sp,sp,-32
   100d4:	00812e23          	sw	s0,28(sp)
   100d8:	02010413          	addi	s0,sp,32
   100dc:	00050793          	mv	a5,a0
   100e0:	00058693          	mv	a3,a1
   100e4:	00060713          	mv	a4,a2
   100e8:	fef41723          	sh	a5,-18(s0)
   100ec:	00068793          	mv	a5,a3
   100f0:	fef41623          	sh	a5,-20(s0)
   100f4:	00070793          	mv	a5,a4
   100f8:	fef41523          	sh	a5,-22(s0)
   100fc:	fee45703          	lhu	a4,-18(s0)
   10100:	fec45783          	lhu	a5,-20(s0)
   10104:	40f70733          	sub	a4,a4,a5
   10108:	fea45783          	lhu	a5,-22(s0)
   1010c:	00f70663          	beq	a4,a5,10118 <sub_u16u16+0x48>
   10110:	00100793          	li	a5,1
   10114:	0080006f          	j	1011c <sub_u16u16+0x4c>
   10118:	00000793          	li	a5,0
   1011c:	00078513          	mv	a0,a5
   10120:	01c12403          	lw	s0,28(sp)
   10124:	02010113          	addi	sp,sp,32
   10128:	00008067          	ret

0001012c <sub_u32u32>:
   1012c:	fe010113          	addi	sp,sp,-32
   10130:	00812e23          	sw	s0,28(sp)
   10134:	02010413          	addi	s0,sp,32
   10138:	fea42623          	sw	a0,-20(s0)
   1013c:	feb42423          	sw	a1,-24(s0)
   10140:	fec42223          	sw	a2,-28(s0)
   10144:	fec42703          	lw	a4,-20(s0)
   10148:	fe842783          	lw	a5,-24(s0)
   1014c:	40f707b3          	sub	a5,a4,a5
   10150:	fe442703          	lw	a4,-28(s0)
   10154:	00f70663          	beq	a4,a5,10160 <sub_u32u32+0x34>
   10158:	00100793          	li	a5,1
   1015c:	0080006f          	j	10164 <sub_u32u32+0x38>
   10160:	00000793          	li	a5,0
   10164:	00078513          	mv	a0,a5
   10168:	01c12403          	lw	s0,28(sp)
   1016c:	02010113          	addi	sp,sp,32
   10170:	00008067          	ret

00010174 <sub_u64u64>:
   10174:	fd010113          	addi	sp,sp,-48
   10178:	02812623          	sw	s0,44(sp)
   1017c:	03010413          	addi	s0,sp,48
   10180:	fea42423          	sw	a0,-24(s0)
   10184:	feb42623          	sw	a1,-20(s0)
   10188:	fec42023          	sw	a2,-32(s0)
   1018c:	fed42223          	sw	a3,-28(s0)
   10190:	fce42c23          	sw	a4,-40(s0)
   10194:	fcf42e23          	sw	a5,-36(s0)
   10198:	fe842703          	lw	a4,-24(s0)
   1019c:	fec42783          	lw	a5,-20(s0)
   101a0:	fe042503          	lw	a0,-32(s0)
   101a4:	fe442583          	lw	a1,-28(s0)
   101a8:	40a70633          	sub	a2,a4,a0
   101ac:	00060813          	mv	a6,a2
   101b0:	01073833          	sltu	a6,a4,a6
   101b4:	40b786b3          	sub	a3,a5,a1
   101b8:	410687b3          	sub	a5,a3,a6
   101bc:	00078693          	mv	a3,a5
   101c0:	fd842783          	lw	a5,-40(s0)
   101c4:	00060713          	mv	a4,a2
   101c8:	00e79863          	bne	a5,a4,101d8 <sub_u64u64+0x64>
   101cc:	fdc42783          	lw	a5,-36(s0)
   101d0:	00068713          	mv	a4,a3
   101d4:	00e78663          	beq	a5,a4,101e0 <sub_u64u64+0x6c>
   101d8:	00100793          	li	a5,1
   101dc:	0080006f          	j	101e4 <sub_u64u64+0x70>
   101e0:	00000793          	li	a5,0
   101e4:	00078513          	mv	a0,a5
   101e8:	02c12403          	lw	s0,44(sp)
   101ec:	03010113          	addi	sp,sp,48
   101f0:	00008067          	ret

000101f4 <sub_s8s8>:
   101f4:	fe010113          	addi	sp,sp,-32
   101f8:	00812e23          	sw	s0,28(sp)
   101fc:	02010413          	addi	s0,sp,32
   10200:	00050793          	mv	a5,a0
   10204:	00058693          	mv	a3,a1
   10208:	00060713          	mv	a4,a2
   1020c:	fef407a3          	sb	a5,-17(s0)
   10210:	00068793          	mv	a5,a3
   10214:	fef40723          	sb	a5,-18(s0)
   10218:	00070793          	mv	a5,a4
   1021c:	fef406a3          	sb	a5,-19(s0)
   10220:	fef40703          	lb	a4,-17(s0)
   10224:	fee40783          	lb	a5,-18(s0)
   10228:	40f70733          	sub	a4,a4,a5
   1022c:	fed40783          	lb	a5,-19(s0)
   10230:	00f70663          	beq	a4,a5,1023c <sub_s8s8+0x48>
   10234:	00100793          	li	a5,1
   10238:	0080006f          	j	10240 <sub_s8s8+0x4c>
   1023c:	00000793          	li	a5,0
   10240:	00078513          	mv	a0,a5
   10244:	01c12403          	lw	s0,28(sp)
   10248:	02010113          	addi	sp,sp,32
   1024c:	00008067          	ret

00010250 <sub_s16s16>:
   10250:	fe010113          	addi	sp,sp,-32
   10254:	00812e23          	sw	s0,28(sp)
   10258:	02010413          	addi	s0,sp,32
   1025c:	00050793          	mv	a5,a0
   10260:	00058693          	mv	a3,a1
   10264:	00060713          	mv	a4,a2
   10268:	fef41723          	sh	a5,-18(s0)
   1026c:	00068793          	mv	a5,a3
   10270:	fef41623          	sh	a5,-20(s0)
   10274:	00070793          	mv	a5,a4
   10278:	fef41523          	sh	a5,-22(s0)
   1027c:	fee41703          	lh	a4,-18(s0)
   10280:	fec41783          	lh	a5,-20(s0)
   10284:	40f70733          	sub	a4,a4,a5
   10288:	fea41783          	lh	a5,-22(s0)
   1028c:	00f70663          	beq	a4,a5,10298 <sub_s16s16+0x48>
   10290:	00100793          	li	a5,1
   10294:	0080006f          	j	1029c <sub_s16s16+0x4c>
   10298:	00000793          	li	a5,0
   1029c:	00078513          	mv	a0,a5
   102a0:	01c12403          	lw	s0,28(sp)
   102a4:	02010113          	addi	sp,sp,32
   102a8:	00008067          	ret

000102ac <sub_s32s32>:
   102ac:	fe010113          	addi	sp,sp,-32
   102b0:	00812e23          	sw	s0,28(sp)
   102b4:	02010413          	addi	s0,sp,32
   102b8:	fea42623          	sw	a0,-20(s0)
   102bc:	feb42423          	sw	a1,-24(s0)
   102c0:	fec42223          	sw	a2,-28(s0)
   102c4:	fec42703          	lw	a4,-20(s0)
   102c8:	fe842783          	lw	a5,-24(s0)
   102cc:	40f707b3          	sub	a5,a4,a5
   102d0:	fe442703          	lw	a4,-28(s0)
   102d4:	00f70663          	beq	a4,a5,102e0 <sub_s32s32+0x34>
   102d8:	00100793          	li	a5,1
   102dc:	0080006f          	j	102e4 <sub_s32s32+0x38>
   102e0:	00000793          	li	a5,0
   102e4:	00078513          	mv	a0,a5
   102e8:	01c12403          	lw	s0,28(sp)
   102ec:	02010113          	addi	sp,sp,32
   102f0:	00008067          	ret

000102f4 <sub_s64s64>:
   102f4:	fd010113          	addi	sp,sp,-48
   102f8:	02812623          	sw	s0,44(sp)
   102fc:	03010413          	addi	s0,sp,48
   10300:	fea42423          	sw	a0,-24(s0)
   10304:	feb42623          	sw	a1,-20(s0)
   10308:	fec42023          	sw	a2,-32(s0)
   1030c:	fed42223          	sw	a3,-28(s0)
   10310:	fce42c23          	sw	a4,-40(s0)
   10314:	fcf42e23          	sw	a5,-36(s0)
   10318:	fe842703          	lw	a4,-24(s0)
   1031c:	fec42783          	lw	a5,-20(s0)
   10320:	fe042503          	lw	a0,-32(s0)
   10324:	fe442583          	lw	a1,-28(s0)
   10328:	40a70633          	sub	a2,a4,a0
   1032c:	00060813          	mv	a6,a2
   10330:	01073833          	sltu	a6,a4,a6
   10334:	40b786b3          	sub	a3,a5,a1
   10338:	410687b3          	sub	a5,a3,a6
   1033c:	00078693          	mv	a3,a5
   10340:	fd842783          	lw	a5,-40(s0)
   10344:	00060713          	mv	a4,a2
   10348:	00e79863          	bne	a5,a4,10358 <sub_s64s64+0x64>
   1034c:	fdc42783          	lw	a5,-36(s0)
   10350:	00068713          	mv	a4,a3
   10354:	00e78663          	beq	a5,a4,10360 <sub_s64s64+0x6c>
   10358:	00100793          	li	a5,1
   1035c:	0080006f          	j	10364 <sub_s64s64+0x70>
   10360:	00000793          	li	a5,0
   10364:	00078513          	mv	a0,a5
   10368:	02c12403          	lw	s0,44(sp)
   1036c:	03010113          	addi	sp,sp,48
   10370:	00008067          	ret

00010374 <sub_u8s8>:
   10374:	fe010113          	addi	sp,sp,-32
   10378:	00812e23          	sw	s0,28(sp)
   1037c:	02010413          	addi	s0,sp,32
   10380:	00050793          	mv	a5,a0
   10384:	00058693          	mv	a3,a1
   10388:	00060713          	mv	a4,a2
   1038c:	fef407a3          	sb	a5,-17(s0)
   10390:	00068793          	mv	a5,a3
   10394:	fef40723          	sb	a5,-18(s0)
   10398:	00070793          	mv	a5,a4
   1039c:	fef406a3          	sb	a5,-19(s0)
   103a0:	fef44703          	lbu	a4,-17(s0)
   103a4:	fee40783          	lb	a5,-18(s0)
   103a8:	40f70733          	sub	a4,a4,a5
   103ac:	fed44783          	lbu	a5,-19(s0)
   103b0:	00f70663          	beq	a4,a5,103bc <sub_u8s8+0x48>
   103b4:	00100793          	li	a5,1
   103b8:	0080006f          	j	103c0 <sub_u8s8+0x4c>
   103bc:	00000793          	li	a5,0
   103c0:	00078513          	mv	a0,a5
   103c4:	01c12403          	lw	s0,28(sp)
   103c8:	02010113          	addi	sp,sp,32
   103cc:	00008067          	ret

000103d0 <sub_u16s16>:
   103d0:	fe010113          	addi	sp,sp,-32
   103d4:	00812e23          	sw	s0,28(sp)
   103d8:	02010413          	addi	s0,sp,32
   103dc:	00050793          	mv	a5,a0
   103e0:	00058693          	mv	a3,a1
   103e4:	00060713          	mv	a4,a2
   103e8:	fef41723          	sh	a5,-18(s0)
   103ec:	00068793          	mv	a5,a3
   103f0:	fef41623          	sh	a5,-20(s0)
   103f4:	00070793          	mv	a5,a4
   103f8:	fef41523          	sh	a5,-22(s0)
   103fc:	fee45703          	lhu	a4,-18(s0)
   10400:	fec41783          	lh	a5,-20(s0)
   10404:	40f70733          	sub	a4,a4,a5
   10408:	fea45783          	lhu	a5,-22(s0)
   1040c:	00f70663          	beq	a4,a5,10418 <sub_u16s16+0x48>
   10410:	00100793          	li	a5,1
   10414:	0080006f          	j	1041c <sub_u16s16+0x4c>
   10418:	00000793          	li	a5,0
   1041c:	00078513          	mv	a0,a5
   10420:	01c12403          	lw	s0,28(sp)
   10424:	02010113          	addi	sp,sp,32
   10428:	00008067          	ret

0001042c <sub_u32s32>:
   1042c:	fe010113          	addi	sp,sp,-32
   10430:	00812e23          	sw	s0,28(sp)
   10434:	02010413          	addi	s0,sp,32
   10438:	fea42623          	sw	a0,-20(s0)
   1043c:	feb42423          	sw	a1,-24(s0)
   10440:	fec42223          	sw	a2,-28(s0)
   10444:	fe842783          	lw	a5,-24(s0)
   10448:	fec42703          	lw	a4,-20(s0)
   1044c:	40f707b3          	sub	a5,a4,a5
   10450:	fe442703          	lw	a4,-28(s0)
   10454:	00f70663          	beq	a4,a5,10460 <sub_u32s32+0x34>
   10458:	00100793          	li	a5,1
   1045c:	0080006f          	j	10464 <sub_u32s32+0x38>
   10460:	00000793          	li	a5,0
   10464:	00078513          	mv	a0,a5
   10468:	01c12403          	lw	s0,28(sp)
   1046c:	02010113          	addi	sp,sp,32
   10470:	00008067          	ret

00010474 <sub_u64s64>:
   10474:	fd010113          	addi	sp,sp,-48
   10478:	02812623          	sw	s0,44(sp)
   1047c:	03010413          	addi	s0,sp,48
   10480:	fea42423          	sw	a0,-24(s0)
   10484:	feb42623          	sw	a1,-20(s0)
   10488:	fec42023          	sw	a2,-32(s0)
   1048c:	fed42223          	sw	a3,-28(s0)
   10490:	fce42c23          	sw	a4,-40(s0)
   10494:	fcf42e23          	sw	a5,-36(s0)
   10498:	fe042503          	lw	a0,-32(s0)
   1049c:	fe442583          	lw	a1,-28(s0)
   104a0:	fe842703          	lw	a4,-24(s0)
   104a4:	fec42783          	lw	a5,-20(s0)
   104a8:	40a70633          	sub	a2,a4,a0
   104ac:	00060813          	mv	a6,a2
   104b0:	01073833          	sltu	a6,a4,a6
   104b4:	40b786b3          	sub	a3,a5,a1
   104b8:	410687b3          	sub	a5,a3,a6
   104bc:	00078693          	mv	a3,a5
   104c0:	fd842783          	lw	a5,-40(s0)
   104c4:	00060713          	mv	a4,a2
   104c8:	00e79863          	bne	a5,a4,104d8 <sub_u64s64+0x64>
   104cc:	fdc42783          	lw	a5,-36(s0)
   104d0:	00068713          	mv	a4,a3
   104d4:	00e78663          	beq	a5,a4,104e0 <sub_u64s64+0x6c>
   104d8:	00100793          	li	a5,1
   104dc:	0080006f          	j	104e4 <sub_u64s64+0x70>
   104e0:	00000793          	li	a5,0
   104e4:	00078513          	mv	a0,a5
   104e8:	02c12403          	lw	s0,44(sp)
   104ec:	03010113          	addi	sp,sp,48
   104f0:	00008067          	ret

000104f4 <sub_s8u8>:
   104f4:	fe010113          	addi	sp,sp,-32
   104f8:	00812e23          	sw	s0,28(sp)
   104fc:	02010413          	addi	s0,sp,32
   10500:	00050793          	mv	a5,a0
   10504:	00058693          	mv	a3,a1
   10508:	00060713          	mv	a4,a2
   1050c:	fef407a3          	sb	a5,-17(s0)
   10510:	00068793          	mv	a5,a3
   10514:	fef40723          	sb	a5,-18(s0)
   10518:	00070793          	mv	a5,a4
   1051c:	fef406a3          	sb	a5,-19(s0)
   10520:	fef40703          	lb	a4,-17(s0)
   10524:	fee44783          	lbu	a5,-18(s0)
   10528:	40f70733          	sub	a4,a4,a5
   1052c:	fed40783          	lb	a5,-19(s0)
   10530:	00f70663          	beq	a4,a5,1053c <sub_s8u8+0x48>
   10534:	00100793          	li	a5,1
   10538:	0080006f          	j	10540 <sub_s8u8+0x4c>
   1053c:	00000793          	li	a5,0
   10540:	00078513          	mv	a0,a5
   10544:	01c12403          	lw	s0,28(sp)
   10548:	02010113          	addi	sp,sp,32
   1054c:	00008067          	ret

00010550 <sub_s16u16>:
   10550:	fe010113          	addi	sp,sp,-32
   10554:	00812e23          	sw	s0,28(sp)
   10558:	02010413          	addi	s0,sp,32
   1055c:	00050793          	mv	a5,a0
   10560:	00058693          	mv	a3,a1
   10564:	00060713          	mv	a4,a2
   10568:	fef41723          	sh	a5,-18(s0)
   1056c:	00068793          	mv	a5,a3
   10570:	fef41623          	sh	a5,-20(s0)
   10574:	00070793          	mv	a5,a4
   10578:	fef41523          	sh	a5,-22(s0)
   1057c:	fee41703          	lh	a4,-18(s0)
   10580:	fec45783          	lhu	a5,-20(s0)
   10584:	40f70733          	sub	a4,a4,a5
   10588:	fea41783          	lh	a5,-22(s0)
   1058c:	00f70663          	beq	a4,a5,10598 <sub_s16u16+0x48>
   10590:	00100793          	li	a5,1
   10594:	0080006f          	j	1059c <sub_s16u16+0x4c>
   10598:	00000793          	li	a5,0
   1059c:	00078513          	mv	a0,a5
   105a0:	01c12403          	lw	s0,28(sp)
   105a4:	02010113          	addi	sp,sp,32
   105a8:	00008067          	ret

000105ac <sub_s32u32>:
   105ac:	fe010113          	addi	sp,sp,-32
   105b0:	00812e23          	sw	s0,28(sp)
   105b4:	02010413          	addi	s0,sp,32
   105b8:	fea42623          	sw	a0,-20(s0)
   105bc:	feb42423          	sw	a1,-24(s0)
   105c0:	fec42223          	sw	a2,-28(s0)
   105c4:	fec42703          	lw	a4,-20(s0)
   105c8:	fe842783          	lw	a5,-24(s0)
   105cc:	40f70733          	sub	a4,a4,a5
   105d0:	fe442783          	lw	a5,-28(s0)
   105d4:	00f70663          	beq	a4,a5,105e0 <sub_s32u32+0x34>
   105d8:	00100793          	li	a5,1
   105dc:	0080006f          	j	105e4 <sub_s32u32+0x38>
   105e0:	00000793          	li	a5,0
   105e4:	00078513          	mv	a0,a5
   105e8:	01c12403          	lw	s0,28(sp)
   105ec:	02010113          	addi	sp,sp,32
   105f0:	00008067          	ret

000105f4 <sub_s64u64>:
   105f4:	fd010113          	addi	sp,sp,-48
   105f8:	02812623          	sw	s0,44(sp)
   105fc:	03010413          	addi	s0,sp,48
   10600:	fea42423          	sw	a0,-24(s0)
   10604:	feb42623          	sw	a1,-20(s0)
   10608:	fec42023          	sw	a2,-32(s0)
   1060c:	fed42223          	sw	a3,-28(s0)
   10610:	fce42c23          	sw	a4,-40(s0)
   10614:	fcf42e23          	sw	a5,-36(s0)
   10618:	fe842703          	lw	a4,-24(s0)
   1061c:	fec42783          	lw	a5,-20(s0)
   10620:	fe042503          	lw	a0,-32(s0)
   10624:	fe442583          	lw	a1,-28(s0)
   10628:	40a70633          	sub	a2,a4,a0
   1062c:	00060813          	mv	a6,a2
   10630:	01073833          	sltu	a6,a4,a6
   10634:	40b786b3          	sub	a3,a5,a1
   10638:	410687b3          	sub	a5,a3,a6
   1063c:	00078693          	mv	a3,a5
   10640:	fd842703          	lw	a4,-40(s0)
   10644:	fdc42783          	lw	a5,-36(s0)
   10648:	00060513          	mv	a0,a2
   1064c:	00070593          	mv	a1,a4
   10650:	00b51463          	bne	a0,a1,10658 <sub_s64u64+0x64>
   10654:	00f68663          	beq	a3,a5,10660 <sub_s64u64+0x6c>
   10658:	00100793          	li	a5,1
   1065c:	0080006f          	j	10664 <sub_s64u64+0x70>
   10660:	00000793          	li	a5,0
   10664:	00078513          	mv	a0,a5
   10668:	02c12403          	lw	s0,44(sp)
   1066c:	03010113          	addi	sp,sp,48
   10670:	00008067          	ret

00010674 <main>:
   10674:	fd010113          	addi	sp,sp,-48
   10678:	02112623          	sw	ra,44(sp)
   1067c:	02812423          	sw	s0,40(sp)
   10680:	02912223          	sw	s1,36(sp)
   10684:	03010413          	addi	s0,sp,48
   10688:	fca42e23          	sw	a0,-36(s0)
   1068c:	fcb42c23          	sw	a1,-40(s0)
   10690:	02a00613          	li	a2,42
   10694:	02b00593          	li	a1,43
   10698:	05500513          	li	a0,85
   1069c:	9d9ff0ef          	jal	10074 <sub_u8u8>
   106a0:	00050493          	mv	s1,a0
   106a4:	16200613          	li	a2,354
   106a8:	13e00593          	li	a1,318
   106ac:	2a000513          	li	a0,672
   106b0:	a21ff0ef          	jal	100d0 <sub_u16u16>
   106b4:	00050793          	mv	a5,a0
   106b8:	00f484b3          	add	s1,s1,a5
   106bc:	000027b7          	lui	a5,0x2
   106c0:	91478613          	addi	a2,a5,-1772 # 1914 <sub_u8u8-0xe760>
   106c4:	000017b7          	lui	a5,0x1
   106c8:	92978593          	addi	a1,a5,-1751 # 929 <sub_u8u8-0xf74b>
   106cc:	000027b7          	lui	a5,0x2
   106d0:	23d78513          	addi	a0,a5,573 # 223d <sub_u8u8-0xde37>
   106d4:	a59ff0ef          	jal	1012c <sub_u32u32>
   106d8:	00050793          	mv	a5,a0
   106dc:	00f484b3          	add	s1,s1,a5
   106e0:	000d3737          	lui	a4,0xd3
   106e4:	fc670713          	addi	a4,a4,-58 # d2fc6 <__global_pointer$+0xc0eda>
   106e8:	00000793          	li	a5,0
   106ec:	0001e637          	lui	a2,0x1e
   106f0:	24060613          	addi	a2,a2,576 # 1e240 <__global_pointer$+0xc154>
   106f4:	00000693          	li	a3,0
   106f8:	000f1537          	lui	a0,0xf1
   106fc:	20650513          	addi	a0,a0,518 # f1206 <__global_pointer$+0xdf11a>
   10700:	00000593          	li	a1,0
   10704:	a71ff0ef          	jal	10174 <sub_u64u64>
   10708:	00050793          	mv	a5,a0
   1070c:	00f484b3          	add	s1,s1,a5
   10710:	02500613          	li	a2,37
   10714:	ff100593          	li	a1,-15
   10718:	01600513          	li	a0,22
   1071c:	ad9ff0ef          	jal	101f4 <sub_s8s8>
   10720:	00050793          	mv	a5,a0
   10724:	00f484b3          	add	s1,s1,a5
   10728:	8f700613          	li	a2,-1801
   1072c:	4d200593          	li	a1,1234
   10730:	dc900513          	li	a0,-567
   10734:	b1dff0ef          	jal	10250 <sub_s16s16>
   10738:	00050793          	mv	a5,a0
   1073c:	00f484b3          	add	s1,s1,a5
   10740:	000047b7          	lui	a5,0x4
   10744:	db978613          	addi	a2,a5,-583 # 3db9 <sub_u8u8-0xc2bb>
   10748:	fffff7b7          	lui	a5,0xfffff
   1074c:	28078593          	addi	a1,a5,640 # fffff280 <__global_pointer$+0xfffed194>
   10750:	000037b7          	lui	a5,0x3
   10754:	03978513          	addi	a0,a5,57 # 3039 <sub_u8u8-0xd03b>
   10758:	b55ff0ef          	jal	102ac <sub_s32s32>
   1075c:	00050793          	mv	a5,a0
   10760:	00f484b3          	add	s1,s1,a5
   10764:	ffc96737          	lui	a4,0xffc96
   10768:	eab70713          	addi	a4,a4,-341 # ffc95eab <__global_pointer$+0xffc83dbf>
   1076c:	fff00793          	li	a5,-1
   10770:	0023d637          	lui	a2,0x23d
   10774:	ace60613          	addi	a2,a2,-1330 # 23cace <__global_pointer$+0x22a9e2>
   10778:	00000693          	li	a3,0
   1077c:	ffed3537          	lui	a0,0xffed3
   10780:	97950513          	addi	a0,a0,-1671 # ffed2979 <__global_pointer$+0xffec088d>
   10784:	fff00593          	li	a1,-1
   10788:	b6dff0ef          	jal	102f4 <sub_s64s64>
   1078c:	00050793          	mv	a5,a0
   10790:	00f484b3          	add	s1,s1,a5
   10794:	01b00613          	li	a2,27
   10798:	ff400593          	li	a1,-12
   1079c:	00f00513          	li	a0,15
   107a0:	bd5ff0ef          	jal	10374 <sub_u8s8>
   107a4:	00050793          	mv	a5,a0
   107a8:	00f484b3          	add	s1,s1,a5
   107ac:	73a00613          	li	a2,1850
   107b0:	d7600593          	li	a1,-650
   107b4:	4b000513          	li	a0,1200
   107b8:	c19ff0ef          	jal	103d0 <sub_u16s16>
   107bc:	00050793          	mv	a5,a0
   107c0:	00f484b3          	add	s1,s1,a5
   107c4:	000017b7          	lui	a5,0x1
   107c8:	5b378613          	addi	a2,a5,1459 # 15b3 <sub_u8u8-0xeac1>
   107cc:	b2e00593          	li	a1,-1234
   107d0:	000017b7          	lui	a5,0x1
   107d4:	0e178513          	addi	a0,a5,225 # 10e1 <sub_u8u8-0xef93>
   107d8:	c55ff0ef          	jal	1042c <sub_u32s32>
   107dc:	00050793          	mv	a5,a0
   107e0:	00f484b3          	add	s1,s1,a5
   107e4:	00a99737          	lui	a4,0xa99
   107e8:	ac670713          	addi	a4,a4,-1338 # a98ac6 <__global_pointer$+0xa869da>
   107ec:	00000793          	li	a5,0
   107f0:	ffed3637          	lui	a2,0xffed3
   107f4:	97960613          	addi	a2,a2,-1671 # ffed2979 <__global_pointer$+0xffec088d>
   107f8:	fff00693          	li	a3,-1
   107fc:	0096b537          	lui	a0,0x96b
   10800:	43f50513          	addi	a0,a0,1087 # 96b43f <__global_pointer$+0x959353>
   10804:	00000593          	li	a1,0
   10808:	c6dff0ef          	jal	10474 <sub_u64s64>
   1080c:	00050793          	mv	a5,a0
   10810:	00f484b3          	add	s1,s1,a5
   10814:	fc100613          	li	a2,-63
   10818:	04e00593          	li	a1,78
   1081c:	00f00513          	li	a0,15
   10820:	cd5ff0ef          	jal	104f4 <sub_s8u8>
   10824:	00050793          	mv	a5,a0
   10828:	00f484b3          	add	s1,s1,a5
   1082c:	5dc00613          	li	a2,1500
   10830:	3e800593          	li	a1,1000
   10834:	000017b7          	lui	a5,0x1
   10838:	9c478513          	addi	a0,a5,-1596 # 9c4 <sub_u8u8-0xf6b0>
   1083c:	d15ff0ef          	jal	10550 <sub_s16u16>
   10840:	00050793          	mv	a5,a0
   10844:	00f484b3          	add	s1,s1,a5
   10848:	000927b7          	lui	a5,0x92
   1084c:	7c078613          	addi	a2,a5,1984 # 927c0 <__global_pointer$+0x806d4>
   10850:	fffcf7b7          	lui	a5,0xfffcf
   10854:	2c078593          	addi	a1,a5,704 # fffcf2c0 <__global_pointer$+0xfffbd1d4>
   10858:	000627b7          	lui	a5,0x62
   1085c:	a8078513          	addi	a0,a5,-1408 # 61a80 <__global_pointer$+0x4f994>
   10860:	d4dff0ef          	jal	105ac <sub_s32u32>
   10864:	00050793          	mv	a5,a0
   10868:	00f484b3          	add	s1,s1,a5
   1086c:	0021f737          	lui	a4,0x21f
   10870:	88e70713          	addi	a4,a4,-1906 # 21e88e <__global_pointer$+0x20c7a2>
   10874:	00000793          	li	a5,0
   10878:	0012d637          	lui	a2,0x12d
   1087c:	68760613          	addi	a2,a2,1671 # 12d687 <__global_pointer$+0x11b59b>
   10880:	00000693          	li	a3,0
   10884:	0034c537          	lui	a0,0x34c
   10888:	f1550513          	addi	a0,a0,-235 # 34bf15 <__global_pointer$+0x339e29>
   1088c:	00000593          	li	a1,0
   10890:	d65ff0ef          	jal	105f4 <sub_s64u64>
   10894:	00050793          	mv	a5,a0
   10898:	00f487b3          	add	a5,s1,a5
   1089c:	fef42623          	sw	a5,-20(s0)
   108a0:	fec42783          	lw	a5,-20(s0)
   108a4:	00078513          	mv	a0,a5
   108a8:	02c12083          	lw	ra,44(sp)
   108ac:	02812403          	lw	s0,40(sp)
   108b0:	02412483          	lw	s1,36(sp)
   108b4:	03010113          	addi	sp,sp,48
   108b8:	00008067          	ret

000108bc <read>:
   108bc:	03f00893          	li	a7,63
   108c0:	00000073          	ecall
   108c4:	00008067          	ret

000108c8 <write>:
   108c8:	04000893          	li	a7,64
   108cc:	00000073          	ecall
   108d0:	00008067          	ret

000108d4 <exit>:
   108d4:	05d00893          	li	a7,93
   108d8:	00000073          	ecall

000108dc <_start>:
   108dc:	00012503          	lw	a0,0(sp)
   108e0:	00410593          	addi	a1,sp,4
   108e4:	d91ff0ef          	jal	10674 <main>
   108e8:	fedff06f          	j	108d4 <exit>
